target datalayout = "e-m:e-p270:32:32-p271:32:32-p272:64:64-i64:64-i128:128-f80:128-n8:16:32:64-S128"
target triple = "x86_64-pc-linux-gnu"

; Function Attrs: nounwind uwtable
define hidden i32 @lj_ir_strcmp(ptr noundef %0, ptr noundef %1, i32 noundef %2) #3 {
  %4 = alloca i32, align 4
  %5 = alloca ptr, align 8
  %6 = alloca ptr, align 8
  %7 = alloca i32, align 4
  %8 = alloca i32, align 4
  %9 = alloca i32, align 4
  store ptr %0, ptr %5, align 8, !tbaa !70
  store ptr %1, ptr %6, align 8, !tbaa !70
  store i32 %2, ptr %7, align 4, !tbaa !32
  call void @llvm.lifetime.start.p0(i64 4, ptr %8) #10
  %10 = load ptr, ptr %5, align 8, !tbaa !70
  %11 = load ptr, ptr %6, align 8, !tbaa !70
  %12 = call i32 @lj_str_cmp(ptr noundef %10, ptr noundef %11)
  store i32 %12, ptr %8, align 4, !tbaa !32
  %13 = load i32, ptr %7, align 4, !tbaa !32
  switch i32 %13, label %30 [
    i32 0, label %14
    i32 1, label %18
    i32 2, label %22
    i32 3, label %26
  ]

14:                                               ; preds = %3
  %15 = load i32, ptr %8, align 4, !tbaa !32
  %16 = icmp slt i32 %15, 0
  %17 = zext i1 %16 to i32
  store i32 %17, ptr %4, align 4
  store i32 1, ptr %9, align 4
  br label %31

18:                                               ; preds = %3
  %19 = load i32, ptr %8, align 4, !tbaa !32
  %20 = icmp sge i32 %19, 0
  %21 = zext i1 %20 to i32
  store i32 %21, ptr %4, align 4
  store i32 1, ptr %9, align 4
  br label %31

22:                                               ; preds = %3
  %23 = load i32, ptr %8, align 4, !tbaa !32
  %24 = icmp sle i32 %23, 0
  %25 = zext i1 %24 to i32
  store i32 %25, ptr %4, align 4
  store i32 1, ptr %9, align 4
  br label %31

26:                                               ; preds = %3
  %27 = load i32, ptr %8, align 4, !tbaa !32
  %28 = icmp sgt i32 %27, 0
  %29 = zext i1 %28 to i32
  store i32 %29, ptr %4, align 4
  store i32 1, ptr %9, align 4
  br label %31

30:                                               ; preds = %3
  store i32 0, ptr %4, align 4
  store i32 1, ptr %9, align 4
  br label %31

31:                                               ; preds = %30, %26, %22, %18, %14
  call void @llvm.lifetime.end.p0(i64 4, ptr %8) #10
  %32 = load i32, ptr %4, align 4
  ret i32 %32
}