; Function Attrs: nounwind uwtable
define hidden range(i32 0, 2) i32 @lj_ir_strcmp(ptr noundef %0, ptr noundef %1, i32 noundef %2) local_unnamed_addr #6 {
  %4 = tail call i32 @lj_str_cmp(ptr noundef %0, ptr noundef %1) #13
  switch i32 %2, label %15 [
    i32 0, label %5
    i32 1, label %6
    i32 2, label %9
    i32 3, label %12
  ]

5:                                                ; preds = %3
  %.lobit = lshr i32 %4, 31
  br label %15

6:                                                ; preds = %3
  %7 = icmp sgt i32 %4, -1
  %8 = zext i1 %7 to i32
  br label %15

9:                                                ; preds = %3
  %10 = icmp slt i32 %4, 1
  %11 = zext i1 %10 to i32
  br label %15

12:                                               ; preds = %3
  %13 = icmp sgt i32 %4, 0
  %14 = zext i1 %13 to i32
  br label %15

15:                                               ; preds = %3, %12, %9, %6, %5
  %.0 = phi i32 [ %14, %12 ], [ %11, %9 ], [ %8, %6 ], [ %.lobit, %5 ], [ 0, %3 ]
  ret i32 %.0
}